kipiplugin_dropbox.so:qt_plugin_instance
kipiplugin_dropbox.so:qt_plugin_query_metadata
kipiplugin_facebook.so:qt_plugin_instance
kipiplugin_facebook.so:qt_plugin_query_metadata
kipiplugin_flickr.so:qt_plugin_instance
kipiplugin_flickr.so:qt_plugin_query_metadata
kipiplugin_googleservices.so:qt_plugin_instance
kipiplugin_googleservices.so:qt_plugin_query_metadata
kipiplugin_imageshack.so:qt_plugin_instance
kipiplugin_imageshack.so:qt_plugin_query_metadata
kipiplugin_imgur.so:qt_plugin_instance
kipiplugin_imgur.so:qt_plugin_query_metadata
kipiplugin_jalbum.so:qt_plugin_instance
kipiplugin_jalbum.so:qt_plugin_query_metadata
kipiplugin_kmlexport.so:qt_plugin_instance
kipiplugin_kmlexport.so:qt_plugin_query_metadata
kipiplugin_piwigo.so:qt_plugin_instance
kipiplugin_piwigo.so:qt_plugin_query_metadata
kipiplugin_printimages.so:qt_plugin_instance
kipiplugin_printimages.so:qt_plugin_query_metadata
kipiplugin_rajce.so:qt_plugin_instance
kipiplugin_rajce.so:qt_plugin_query_metadata
kipiplugin_remotestorage.so:qt_plugin_instance
kipiplugin_remotestorage.so:qt_plugin_query_metadata
kipiplugin_sendimages.so:qt_plugin_instance
kipiplugin_sendimages.so:qt_plugin_query_metadata
kipiplugin_smug.so:qt_plugin_instance
kipiplugin_smug.so:qt_plugin_query_metadata
kipiplugin_vkontakte.so:__bss_start
kipiplugin_vkontakte.so:_edata
kipiplugin_vkontakte.so:_end
kipiplugin_vkontakte.so:qt_plugin_instance
kipiplugin_vkontakte.so:qt_plugin_query_metadata
kipiplugin_yandexfotki.so:qt_plugin_instance
kipiplugin_yandexfotki.so:qt_plugin_query_metadata
libKF5kipiplugins.so.5.9.1:_Z15KIPIPLUGINS_LOGv
libKF5kipiplugins.so.5.9.1:_Z29qInitResources_libkipipluginsv
libKF5kipiplugins.so.5.9.1:_Z32qCleanupResources_libkipipluginsv
libKF5kipiplugins.so.5.9.1:_ZN10O0BaseAuth11extraTokensEv
libKF5kipiplugins.so.5.9.1:_ZN10O0BaseAuth11openBrowserERK4QUrl
libKF5kipiplugins.so.5.9.1:_ZN10O0BaseAuth11qt_metacallEN11QMetaObject4CallEiPPv
libKF5kipiplugins.so.5.9.1:_ZN10O0BaseAuth11qt_metacastEPKc
libKF5kipiplugins.so.5.9.1:_ZN10O0BaseAuth11setClientIdERK7QString
libKF5kipiplugins.so.5.9.1:_ZN10O0BaseAuth11tokenSecretEv
libKF5kipiplugins.so.5.9.1:_ZN10O0BaseAuth12clientSecretEv
libKF5kipiplugins.so.5.9.1:_ZN10O0BaseAuth12closeBrowserEv
libKF5kipiplugins.so.5.9.1:_ZN10O0BaseAuth12setLocalPortEi
libKF5kipiplugins.so.5.9.1:_ZN10O0BaseAuth12tokenChangedEv
libKF5kipiplugins.so.5.9.1:_ZN10O0BaseAuth13linkedChangedEv
libKF5kipiplugins.so.5.9.1:_ZN10O0BaseAuth13linkingFailedEv
libKF5kipiplugins.so.5.9.1:_ZN10O0BaseAuth14setExtraTokensE4QMapI7QString8QVariantE
libKF5kipiplugins.so.5.9.1:_ZN10O0BaseAuth14setTokenSecretERK7QString
libKF5kipiplugins.so.5.9.1:_ZN10O0BaseAuth15clientIdChangedEv
libKF5kipiplugins.so.5.9.1:_ZN10O0BaseAuth15setClientSecretERK7QString
libKF5kipiplugins.so.5.9.1:_ZN10O0BaseAuth16linkingSucceededEv
libKF5kipiplugins.so.5.9.1:_ZN10O0BaseAuth16localPortChangedEv
libKF5kipiplugins.so.5.9.1:_ZN10O0BaseAuth16staticMetaObjectE
libKF5kipiplugins.so.5.9.1:_ZN10O0BaseAuth18extraTokensChangedEv
libKF5kipiplugins.so.5.9.1:_ZN10O0BaseAuth18tokenSecretChangedEv
libKF5kipiplugins.so.5.9.1:_ZN10O0BaseAuth19clientSecretChangedEv
libKF5kipiplugins.so.5.9.1:_ZN10O0BaseAuth21createQueryParametersERK5QListI18O0RequestParameterE
libKF5kipiplugins.so.5.9.1:_ZN10O0BaseAuth5tokenEv
libKF5kipiplugins.so.5.9.1:_ZN10O0BaseAuth6linkedEv
libKF5kipiplugins.so.5.9.1:_ZN10O0BaseAuth8clientIdEv
libKF5kipiplugins.so.5.9.1:_ZN10O0BaseAuth8setStoreEP15O0AbstractStore
libKF5kipiplugins.so.5.9.1:_ZN10O0BaseAuth8setTokenERK7QString
libKF5kipiplugins.so.5.9.1:_ZN10O0BaseAuth9localPortEv
libKF5kipiplugins.so.5.9.1:_ZN10O0BaseAuth9setLinkedEb
libKF5kipiplugins.so.5.9.1:_ZN10O0BaseAuthC1EP7QObjectP15O0AbstractStore
libKF5kipiplugins.so.5.9.1:_ZN10O0BaseAuthC2EP7QObjectP15O0AbstractStore
libKF5kipiplugins.so.5.9.1:_ZN11KIPIPlugins10CtrlButton11qt_metacallEN11QMetaObject4CallEiPPv
libKF5kipiplugins.so.5.9.1:_ZN11KIPIPlugins10CtrlButton11qt_metacastEPKc
libKF5kipiplugins.so.5.9.1:_ZN11KIPIPlugins10CtrlButton16staticMetaObjectE
libKF5kipiplugins.so.5.9.1:_ZN11KIPIPlugins10CtrlButtonC1ERK5QIconP7QWidget
libKF5kipiplugins.so.5.9.1:_ZN11KIPIPlugins10CtrlButtonC2ERK5QIconP7QWidget
libKF5kipiplugins.so.5.9.1:_ZN11KIPIPlugins10CtrlButtonD0Ev
libKF5kipiplugins.so.5.9.1:_ZN11KIPIPlugins10CtrlButtonD1Ev
libKF5kipiplugins.so.5.9.1:_ZN11KIPIPlugins10CtrlButtonD2Ev
libKF5kipiplugins.so.5.9.1:_ZN11KIPIPlugins11KPAboutData11qt_metacallEN11QMetaObject4CallEiPPv
libKF5kipiplugins.so.5.9.1:_ZN11KIPIPlugins11KPAboutData11qt_metacastEPKc
libKF5kipiplugins.so.5.9.1:_ZN11KIPIPlugins11KPAboutData13setHelpButtonEP11QPushButton
libKF5kipiplugins.so.5.9.1:_ZN11KIPIPlugins11KPAboutData16setHandbookEntryERK7QString
libKF5kipiplugins.so.5.9.1:_ZN11KIPIPlugins11KPAboutData16staticMetaObjectE
libKF5kipiplugins.so.5.9.1:_ZN11KIPIPlugins11KPAboutData8slotHelpEv
libKF5kipiplugins.so.5.9.1:_ZN11KIPIPlugins11KPAboutData9addAuthorERK7QStringS3_S3_
libKF5kipiplugins.so.5.9.1:_ZN11KIPIPlugins11KPAboutData9slotAboutEv
libKF5kipiplugins.so.5.9.1:_ZN11KIPIPlugins11KPAboutDataC1ERK16KLocalizedStringS3_S3_
libKF5kipiplugins.so.5.9.1:_ZN11KIPIPlugins11KPAboutDataC1ERKS0_
libKF5kipiplugins.so.5.9.1:_ZN11KIPIPlugins11KPAboutDataC2ERK16KLocalizedStringS3_S3_
libKF5kipiplugins.so.5.9.1:_ZN11KIPIPlugins11KPAboutDataC2ERKS0_
libKF5kipiplugins.so.5.9.1:_ZN11KIPIPlugins11KPAboutDataD0Ev
libKF5kipiplugins.so.5.9.1:_ZN11KIPIPlugins11KPAboutDataD1Ev
libKF5kipiplugins.so.5.9.1:_ZN11KIPIPlugins11KPAboutDataD2Ev
libKF5kipiplugins.so.5.9.1:_ZN11KIPIPlugins11KPImageInfo11setAltitudeEd
libKF5kipiplugins.so.5.9.1:_ZN11KIPIPlugins11KPImageInfo11setCreatorsERK11QStringList
libKF5kipiplugins.so.5.9.1:_ZN11KIPIPlugins11KPImageInfo11setLatitudeEd
libKF5kipiplugins.so.5.9.1:_ZN11KIPIPlugins11KPImageInfo11setTagsPathERK11QStringList
libKF5kipiplugins.so.5.9.1:_ZN11KIPIPlugins11KPImageInfo12setLongitudeEd
libKF5kipiplugins.so.5.9.1:_ZN11KIPIPlugins11KPImageInfo12setPickLabelEi
libKF5kipiplugins.so.5.9.1:_ZN11KIPIPlugins11KPImageInfo13setColorLabelEi
libKF5kipiplugins.so.5.9.1:_ZN11KIPIPlugins11KPImageInfo14setDescriptionERK7QString
libKF5kipiplugins.so.5.9.1:_ZN11KIPIPlugins11KPImageInfo14setOrientationEi
libKF5kipiplugins.so.5.9.1:_ZN11KIPIPlugins11KPImageInfo21removeGeolocationInfoEv
libKF5kipiplugins.so.5.9.1:_ZN11KIPIPlugins11KPImageInfo7setDateERK9QDateTime
libKF5kipiplugins.so.5.9.1:_ZN11KIPIPlugins11KPImageInfo7setNameERK7QString
libKF5kipiplugins.so.5.9.1:_ZN11KIPIPlugins11KPImageInfo8setTitleERK7QString
libKF5kipiplugins.so.5.9.1:_ZN11KIPIPlugins11KPImageInfo9cloneDataERK4QUrl
libKF5kipiplugins.so.5.9.1:_ZN11KIPIPlugins11KPImageInfo9setCreditERK7QString
libKF5kipiplugins.so.5.9.1:_ZN11KIPIPlugins11KPImageInfo9setRatingEi
libKF5kipiplugins.so.5.9.1:_ZN11KIPIPlugins11KPImageInfo9setRightsERK7QString
libKF5kipiplugins.so.5.9.1:_ZN11KIPIPlugins11KPImageInfo9setSourceERK7QString
libKF5kipiplugins.so.5.9.1:_ZN11KIPIPlugins11KPImageInfoC1ERK4QUrl
libKF5kipiplugins.so.5.9.1:_ZN11KIPIPlugins11KPImageInfoC2ERK4QUrl
libKF5kipiplugins.so.5.9.1:_ZN11KIPIPlugins11KPImageInfoD1Ev
libKF5kipiplugins.so.5.9.1:_ZN11KIPIPlugins11KPImageInfoD2Ev
libKF5kipiplugins.so.5.9.1:_ZN11KIPIPlugins12KPDialogBase12setAboutDataEPNS_11KPAboutDataEP11QPushButton
libKF5kipiplugins.so.5.9.1:_ZN11KIPIPlugins12KPDialogBaseC1EP7QDialog
libKF5kipiplugins.so.5.9.1:_ZN11KIPIPlugins12KPDialogBaseC2EP7QDialog
libKF5kipiplugins.so.5.9.1:_ZN11KIPIPlugins12KPDialogBaseD0Ev
libKF5kipiplugins.so.5.9.1:_ZN11KIPIPlugins12KPDialogBaseD1Ev
libKF5kipiplugins.so.5.9.1:_ZN11KIPIPlugins12KPDialogBaseD2Ev
libKF5kipiplugins.so.5.9.1:_ZN11KIPIPlugins12KPImagesList10processingERK4QUrl
libKF5kipiplugins.so.5.9.1:_ZN11KIPIPlugins12KPImagesList11qt_metacallEN11QMetaObject4CallEiPPv
libKF5kipiplugins.so.5.9.1:_ZN11KIPIPlugins12KPImagesList11qt_metacastEPKc
libKF5kipiplugins.so.5.9.1:_ZN11KIPIPlugins12KPImagesList11setAllowRAWEb
libKF5kipiplugins.so.5.9.1:_ZN11KIPIPlugins12KPImagesList11setIconSizeEi
libKF5kipiplugins.so.5.9.1:_ZN11KIPIPlugins12KPImagesList12slotAddItemsEv
libKF5kipiplugins.so.5.9.1:_ZN11KIPIPlugins12KPImagesList13cancelProcessEv
libKF5kipiplugins.so.5.9.1:_ZN11KIPIPlugins12KPImagesList13slotAddImagesERK5QListI4QUrlE
libKF5kipiplugins.so.5.9.1:_ZN11KIPIPlugins12KPImagesList13slotLoadItemsEv
libKF5kipiplugins.so.5.9.1:_ZN11KIPIPlugins12KPImagesList13slotSaveItemsEv
libKF5kipiplugins.so.5.9.1:_ZN11KIPIPlugins12KPImagesList13slotThumbnailERK4QUrlRK7QPixmap
libKF5kipiplugins.so.5.9.1:_ZN11KIPIPlugins12KPImagesList14signalAddItemsERK5QListI4QUrlE
libKF5kipiplugins.so.5.9.1:_ZN11KIPIPlugins12KPImagesList14slotClearItemsEv
libKF5kipiplugins.so.5.9.1:_ZN11KIPIPlugins12KPImagesList15removeItemByUrlERK4QUrl
libKF5kipiplugins.so.5.9.1:_ZN11KIPIPlugins12KPImagesList15slotMoveUpItemsEv
libKF5kipiplugins.so.5.9.1:_ZN11KIPIPlugins12KPImagesList15slotRemoveItemsEv
libKF5kipiplugins.so.5.9.1:_ZN11KIPIPlugins12KPImagesList15updateThumbnailERK4QUrl
libKF5kipiplugins.so.5.9.1:_ZN11KIPIPlugins12KPImagesList16signalMoveUpItemEv
libKF5kipiplugins.so.5.9.1:_ZN11KIPIPlugins12KPImagesList16staticMetaObjectE
libKF5kipiplugins.so.5.9.1:_ZN11KIPIPlugins12KPImagesList17enableDragAndDropEb
libKF5kipiplugins.so.5.9.1:_ZN11KIPIPlugins12KPImagesList17setAllowDuplicateEb
libKF5kipiplugins.so.5.9.1:_ZN11KIPIPlugins12KPImagesList17setControlButtonsE6QFlagsINS0_13ControlButtonEE
libKF5kipiplugins.so.5.9.1:_ZN11KIPIPlugins12KPImagesList17signalItemClickedEP15QTreeWidgetItem
libKF5kipiplugins.so.5.9.1:_ZN11KIPIPlugins12KPImagesList17signalXMLSaveItemER16QXmlStreamWriterPNS_20KPImagesListViewItemE
libKF5kipiplugins.so.5.9.1:_ZN11KIPIPlugins12KPImagesList17slotMoveDownItemsEv
libKF5kipiplugins.so.5.9.1:_ZN11KIPIPlugins12KPImagesList18signalMoveDownItemEv
libKF5kipiplugins.so.5.9.1:_ZN11KIPIPlugins12KPImagesList18signalRemovedItemsERK5QListI4QUrlE
libKF5kipiplugins.so.5.9.1:_ZN11KIPIPlugins12KPImagesList18signalRemovingItemEPNS_20KPImagesListViewItemE
libKF5kipiplugins.so.5.9.1:_ZN11KIPIPlugins12KPImagesList20clearProcessedStatusEv
libKF5kipiplugins.so.5.9.1:_ZN11KIPIPlugins12KPImagesList20enableControlButtonsEb
libKF5kipiplugins.so.5.9.1:_ZN11KIPIPlugins12KPImagesList20signalFoundRAWImagesEb
libKF5kipiplugins.so.5.9.1:_ZN11KIPIPlugins12KPImagesList20slotImageListChangedEv
libKF5kipiplugins.so.5.9.1:_ZN11KIPIPlugins12KPImagesList21slotProgressTimerDoneEv
libKF5kipiplugins.so.5.9.1:_ZN11KIPIPlugins12KPImagesList22signalImageListChangedEv
libKF5kipiplugins.so.5.9.1:_ZN11KIPIPlugins12KPImagesList23signalXMLCustomElementsER16QXmlStreamReader
libKF5kipiplugins.so.5.9.1:_ZN11KIPIPlugins12KPImagesList23signalXMLCustomElementsER16QXmlStreamWriter
libKF5kipiplugins.so.5.9.1:_ZN11KIPIPlugins12KPImagesList25signalXMLLoadImageElementER16QXmlStreamReader
libKF5kipiplugins.so.5.9.1:_ZN11KIPIPlugins12KPImagesList26loadImagesFromCurrentAlbumEv
libKF5kipiplugins.so.5.9.1:_ZN11KIPIPlugins12KPImagesList26setControlButtonsPlacementENS0_22ControlButtonPlacementE
libKF5kipiplugins.so.5.9.1:_ZN11KIPIPlugins12KPImagesList26signalContextMenuRequestedEv
libKF5kipiplugins.so.5.9.1:_ZN11KIPIPlugins12KPImagesList30loadImagesFromCurrentSelectionEv
libKF5kipiplugins.so.5.9.1:_ZN11KIPIPlugins12KPImagesList9processedERK4QUrlb
libKF5kipiplugins.so.5.9.1:_ZN11KIPIPlugins12KPImagesListC1EP7QWidgeti
libKF5kipiplugins.so.5.9.1:_ZN11KIPIPlugins12KPImagesListC2EP7QWidgeti
libKF5kipiplugins.so.5.9.1:_ZN11KIPIPlugins12KPImagesListD0Ev
libKF5kipiplugins.so.5.9.1:_ZN11KIPIPlugins12KPImagesListD1Ev
libKF5kipiplugins.so.5.9.1:_ZN11KIPIPlugins12KPImagesListD2Ev
libKF5kipiplugins.so.5.9.1:_ZN11KIPIPlugins12KPToolDialog11qt_metacallEN11QMetaObject4CallEiPPv
libKF5kipiplugins.so.5.9.1:_ZN11KIPIPlugins12KPToolDialog11qt_metacastEPKc
libKF5kipiplugins.so.5.9.1:_ZN11KIPIPlugins12KPToolDialog13cancelClickedEv
libKF5kipiplugins.so.5.9.1:_ZN11KIPIPlugins12KPToolDialog13setMainWidgetEP7QWidget
libKF5kipiplugins.so.5.9.1:_ZN11KIPIPlugins12KPToolDialog16slotCloseClickedEv
libKF5kipiplugins.so.5.9.1:_ZN11KIPIPlugins12KPToolDialog16staticMetaObjectE
libKF5kipiplugins.so.5.9.1:_ZN11KIPIPlugins12KPToolDialog19setRejectButtonModeEN16QDialogButtonBox14StandardButtonE
libKF5kipiplugins.so.5.9.1:_ZN11KIPIPlugins12KPToolDialog9addButtonEP15QAbstractButtonN16QDialogButtonBox10ButtonRoleE
libKF5kipiplugins.so.5.9.1:_ZN11KIPIPlugins12KPToolDialogC1EP7QWidget
libKF5kipiplugins.so.5.9.1:_ZN11KIPIPlugins12KPToolDialogC2EP7QWidget
libKF5kipiplugins.so.5.9.1:_ZN11KIPIPlugins12KPToolDialogD0Ev
libKF5kipiplugins.so.5.9.1:_ZN11KIPIPlugins12KPToolDialogD1Ev
libKF5kipiplugins.so.5.9.1:_ZN11KIPIPlugins12KPToolDialogD2Ev
libKF5kipiplugins.so.5.9.1:_ZN11KIPIPlugins12KPWizardPage11setCompleteEb
libKF5kipiplugins.so.5.9.1:_ZN11KIPIPlugins12KPWizardPage13setPageWidgetEP7QWidget
libKF5kipiplugins.so.5.9.1:_ZN11KIPIPlugins12KPWizardPage15setShowLeftViewEb
libKF5kipiplugins.so.5.9.1:_ZN11KIPIPlugins12KPWizardPage16removePageWidgetEP7QWidget
libKF5kipiplugins.so.5.9.1:_ZN11KIPIPlugins12KPWizardPage16setLeftBottomPixERK7QPixmap
libKF5kipiplugins.so.5.9.1:_ZN11KIPIPlugins12KPWizardPageC1EPNS_14KPWizardDialogERK7QString
libKF5kipiplugins.so.5.9.1:_ZN11KIPIPlugins12KPWizardPageC2EPNS_14KPWizardDialogERK7QString
libKF5kipiplugins.so.5.9.1:_ZN11KIPIPlugins12KPWizardPageD0Ev
libKF5kipiplugins.so.5.9.1:_ZN11KIPIPlugins12KPWizardPageD1Ev
libKF5kipiplugins.so.5.9.1:_ZN11KIPIPlugins12KPWizardPageD2Ev
libKF5kipiplugins.so.5.9.1:_ZN11KIPIPlugins13KPImageDialog11getImageUrlEP7QWidgetb
libKF5kipiplugins.so.5.9.1:_ZN11KIPIPlugins13KPImageDialog12getImageUrlsEP7QWidgetb
libKF5kipiplugins.so.5.9.1:_ZN11KIPIPlugins13KPImageDialogC1EP7QWidgetbb
libKF5kipiplugins.so.5.9.1:_ZN11KIPIPlugins13KPImageDialogC2EP7QWidgetbb
libKF5kipiplugins.so.5.9.1:_ZN11KIPIPlugins13KPImageDialogD1Ev
libKF5kipiplugins.so.5.9.1:_ZN11KIPIPlugins13KPImageDialogD2Ev
libKF5kipiplugins.so.5.9.1:_ZN11KIPIPlugins13KPLoginDialog10slotAcceptEv
libKF5kipiplugins.so.5.9.1:_ZN11KIPIPlugins13KPLoginDialog11qt_metacallEN11QMetaObject4CallEiPPv
libKF5kipiplugins.so.5.9.1:_ZN11KIPIPlugins13KPLoginDialog11qt_metacastEPKc
libKF5kipiplugins.so.5.9.1:_ZN11KIPIPlugins13KPLoginDialog11setPasswordERK7QString
libKF5kipiplugins.so.5.9.1:_ZN11KIPIPlugins13KPLoginDialog16staticMetaObjectE
libKF5kipiplugins.so.5.9.1:_ZN11KIPIPlugins13KPLoginDialog8setLoginERK7QString
libKF5kipiplugins.so.5.9.1:_ZN11KIPIPlugins13KPLoginDialogC1EP7QWidgetRK7QStringS5_S5_
libKF5kipiplugins.so.5.9.1:_ZN11KIPIPlugins13KPLoginDialogC2EP7QWidgetRK7QStringS5_S5_
libKF5kipiplugins.so.5.9.1:_ZN11KIPIPlugins13KPLoginDialogD0Ev
libKF5kipiplugins.so.5.9.1:_ZN11KIPIPlugins13KPLoginDialogD1Ev
libKF5kipiplugins.so.5.9.1:_ZN11KIPIPlugins13KPLoginDialogD2Ev
libKF5kipiplugins.so.5.9.1:_ZN11KIPIPlugins14KPFileSelector11qt_metacallEN11QMetaObject4CallEiPPv
libKF5kipiplugins.so.5.9.1:_ZN11KIPIPlugins14KPFileSelector11qt_metacastEPKc
libKF5kipiplugins.so.5.9.1:_ZN11KIPIPlugins14KPFileSelector14setFileDlgModeEN11QFileDialog8FileModeE
libKF5kipiplugins.so.5.9.1:_ZN11KIPIPlugins14KPFileSelector14slotBtnClickedEv
libKF5kipiplugins.so.5.9.1:_ZN11KIPIPlugins14KPFileSelector15setFileDlgTitleERK7QString
libKF5kipiplugins.so.5.9.1:_ZN11KIPIPlugins14KPFileSelector16setFileDlgFilterERK7QString
libKF5kipiplugins.so.5.9.1:_ZN11KIPIPlugins14KPFileSelector16staticMetaObjectE
libKF5kipiplugins.so.5.9.1:_ZN11KIPIPlugins14KPFileSelector17setFileDlgOptionsE6QFlagsIN11QFileDialog6OptionEE
libKF5kipiplugins.so.5.9.1:_ZN11KIPIPlugins14KPFileSelector17signalUrlSelectedERK4QUrl
libKF5kipiplugins.so.5.9.1:_ZN11KIPIPlugins14KPFileSelector20signalOpenFileDialogEv
libKF5kipiplugins.so.5.9.1:_ZN11KIPIPlugins14KPFileSelectorC1EP7QWidget
libKF5kipiplugins.so.5.9.1:_ZN11KIPIPlugins14KPFileSelectorC2EP7QWidget
libKF5kipiplugins.so.5.9.1:_ZN11KIPIPlugins14KPFileSelectorD0Ev
libKF5kipiplugins.so.5.9.1:_ZN11KIPIPlugins14KPFileSelectorD1Ev
libKF5kipiplugins.so.5.9.1:_ZN11KIPIPlugins14KPFileSelectorD2Ev
libKF5kipiplugins.so.5.9.1:_ZN11KIPIPlugins14KPWizardDialogC1EP7QWidget
libKF5kipiplugins.so.5.9.1:_ZN11KIPIPlugins14KPWizardDialogC2EP7QWidget
libKF5kipiplugins.so.5.9.1:_ZN11KIPIPlugins14KPWizardDialogD0Ev
libKF5kipiplugins.so.5.9.1:_ZN11KIPIPlugins14KPWizardDialogD1Ev
libKF5kipiplugins.so.5.9.1:_ZN11KIPIPlugins14KPWizardDialogD2Ev
libKF5kipiplugins.so.5.9.1:_ZN11KIPIPlugins15KPColorSelector10paintEventEP11QPaintEvent
libKF5kipiplugins.so.5.9.1:_ZN11KIPIPlugins15KPColorSelector11qt_metacallEN11QMetaObject4CallEiPPv
libKF5kipiplugins.so.5.9.1:_ZN11KIPIPlugins15KPColorSelector11qt_metacastEPKc
libKF5kipiplugins.so.5.9.1:_ZN11KIPIPlugins15KPColorSelector14slotBtnClickedEv
libKF5kipiplugins.so.5.9.1:_ZN11KIPIPlugins15KPColorSelector16staticMetaObjectE
libKF5kipiplugins.so.5.9.1:_ZN11KIPIPlugins15KPColorSelector19signalColorSelectedERK6QColor
libKF5kipiplugins.so.5.9.1:_ZN11KIPIPlugins15KPColorSelector8setColorERK6QColor
libKF5kipiplugins.so.5.9.1:_ZN11KIPIPlugins15KPColorSelectorC1EP7QWidget
libKF5kipiplugins.so.5.9.1:_ZN11KIPIPlugins15KPColorSelectorC2EP7QWidget
libKF5kipiplugins.so.5.9.1:_ZN11KIPIPlugins15KPColorSelectorD0Ev
libKF5kipiplugins.so.5.9.1:_ZN11KIPIPlugins15KPColorSelectorD1Ev
libKF5kipiplugins.so.5.9.1:_ZN11KIPIPlugins15KPColorSelectorD2Ev
libKF5kipiplugins.so.5.9.1:_ZN11KIPIPlugins15KPThreadManager10appendJobsERK4QMapIPNS_5KPJobEiE
libKF5kipiplugins.so.5.9.1:_ZN11KIPIPlugins15KPThreadManager11qt_metacallEN11QMetaObject4CallEiPPv
libKF5kipiplugins.so.5.9.1:_ZN11KIPIPlugins15KPThreadManager11qt_metacastEPKc
libKF5kipiplugins.so.5.9.1:_ZN11KIPIPlugins15KPThreadManager15slotJobFinishedEv
libKF5kipiplugins.so.5.9.1:_ZN11KIPIPlugins15KPThreadManager16staticMetaObjectE
libKF5kipiplugins.so.5.9.1:_ZN11KIPIPlugins15KPThreadManager25setMaximumNumberOfThreadsEi
libKF5kipiplugins.so.5.9.1:_ZN11KIPIPlugins15KPThreadManager29defaultMaximumNumberOfThreadsEv
libKF5kipiplugins.so.5.9.1:_ZN11KIPIPlugins15KPThreadManager3runEv
libKF5kipiplugins.so.5.9.1:_ZN11KIPIPlugins15KPThreadManager6cancelEv
libKF5kipiplugins.so.5.9.1:_ZN11KIPIPlugins15KPThreadManagerC1EP7QObject
libKF5kipiplugins.so.5.9.1:_ZN11KIPIPlugins15KPThreadManagerC2EP7QObject
libKF5kipiplugins.so.5.9.1:_ZN11KIPIPlugins15KPThreadManagerD0Ev
libKF5kipiplugins.so.5.9.1:_ZN11KIPIPlugins15KPThreadManagerD1Ev
libKF5kipiplugins.so.5.9.1:_ZN11KIPIPlugins15KPThreadManagerD2Ev
libKF5kipiplugins.so.5.9.1:_ZN11KIPIPlugins15KPWorkingPixmapC1Ev
libKF5kipiplugins.so.5.9.1:_ZN11KIPIPlugins15KPWorkingPixmapC2Ev
libKF5kipiplugins.so.5.9.1:_ZN11KIPIPlugins15KPWorkingPixmapD1Ev
libKF5kipiplugins.so.5.9.1:_ZN11KIPIPlugins15KPWorkingPixmapD2Ev
libKF5kipiplugins.so.5.9.1:_ZN11KIPIPlugins16KPImagesListView11qt_metacallEN11QMetaObject4CallEiPPv
libKF5kipiplugins.so.5.9.1:_ZN11KIPIPlugins16KPImagesListView11qt_metacastEPKc
libKF5kipiplugins.so.5.9.1:_ZN11KIPIPlugins16KPImagesListView13dragMoveEventEP14QDragMoveEvent
libKF5kipiplugins.so.5.9.1:_ZN11KIPIPlugins16KPImagesListView14dragEnterEventEP15QDragEnterEvent
libKF5kipiplugins.so.5.9.1:_ZN11KIPIPlugins16KPImagesListView14setColumnLabelENS0_10ColumnTypeERK7QString
libKF5kipiplugins.so.5.9.1:_ZN11KIPIPlugins16KPImagesListView15slotItemClickedEP15QTreeWidgetItemi
libKF5kipiplugins.so.5.9.1:_ZN11KIPIPlugins16KPImagesListView16contextMenuEventEP17QContextMenuEvent
libKF5kipiplugins.so.5.9.1:_ZN11KIPIPlugins16KPImagesListView16setColumnEnabledENS0_10ColumnTypeEb
libKF5kipiplugins.so.5.9.1:_ZN11KIPIPlugins16KPImagesListView16staticMetaObjectE
libKF5kipiplugins.so.5.9.1:_ZN11KIPIPlugins16KPImagesListView17enableDragAndDropEb
libKF5kipiplugins.so.5.9.1:_ZN11KIPIPlugins16KPImagesListView17signalItemClickedEP15QTreeWidgetItem
libKF5kipiplugins.so.5.9.1:_ZN11KIPIPlugins16KPImagesListView22signalAddedDropedItemsERK5QListI4QUrlE
libKF5kipiplugins.so.5.9.1:_ZN11KIPIPlugins16KPImagesListView26signalContextMenuRequestedEv
libKF5kipiplugins.so.5.9.1:_ZN11KIPIPlugins16KPImagesListView5setupEi
libKF5kipiplugins.so.5.9.1:_ZN11KIPIPlugins16KPImagesListView8findItemERK4QUrl
libKF5kipiplugins.so.5.9.1:_ZN11KIPIPlugins16KPImagesListView9dropEventEP10QDropEvent
libKF5kipiplugins.so.5.9.1:_ZN11KIPIPlugins16KPImagesListView9setColumnENS0_10ColumnTypeERK7QStringb
libKF5kipiplugins.so.5.9.1:_ZN11KIPIPlugins16KPImagesListViewC1EPNS_12KPImagesListE
libKF5kipiplugins.so.5.9.1:_ZN11KIPIPlugins16KPImagesListViewC1EiPNS_12KPImagesListE
libKF5kipiplugins.so.5.9.1:_ZN11KIPIPlugins16KPImagesListViewC2EPNS_12KPImagesListE
libKF5kipiplugins.so.5.9.1:_ZN11KIPIPlugins16KPImagesListViewC2EiPNS_12KPImagesListE
libKF5kipiplugins.so.5.9.1:_ZN11KIPIPlugins16KPImagesListViewD0Ev
libKF5kipiplugins.so.5.9.1:_ZN11KIPIPlugins16KPImagesListViewD1Ev
libKF5kipiplugins.so.5.9.1:_ZN11KIPIPlugins16KPImagesListViewD2Ev
libKF5kipiplugins.so.5.9.1:_ZN11KIPIPlugins16KPNewAlbumDialog11qt_metacallEN11QMetaObject4CallEiPPv
libKF5kipiplugins.so.5.9.1:_ZN11KIPIPlugins16KPNewAlbumDialog11qt_metacastEPKc
libKF5kipiplugins.so.5.9.1:_ZN11KIPIPlugins16KPNewAlbumDialog12hideDateTimeEv
libKF5kipiplugins.so.5.9.1:_ZN11KIPIPlugins16KPNewAlbumDialog12hideLocationEv
libKF5kipiplugins.so.5.9.1:_ZN11KIPIPlugins16KPNewAlbumDialog15addToMainLayoutEP7QWidget
libKF5kipiplugins.so.5.9.1:_ZN11KIPIPlugins16KPNewAlbumDialog15slotTextChangedERK7QString
libKF5kipiplugins.so.5.9.1:_ZN11KIPIPlugins16KPNewAlbumDialog16staticMetaObjectE
libKF5kipiplugins.so.5.9.1:_ZN11KIPIPlugins16KPNewAlbumDialog8hideDescEv
libKF5kipiplugins.so.5.9.1:_ZN11KIPIPlugins16KPNewAlbumDialogC1EP7QWidgetRK7QString
libKF5kipiplugins.so.5.9.1:_ZN11KIPIPlugins16KPNewAlbumDialogC2EP7QWidgetRK7QString
libKF5kipiplugins.so.5.9.1:_ZN11KIPIPlugins16KPNewAlbumDialogD0Ev
libKF5kipiplugins.so.5.9.1:_ZN11KIPIPlugins16KPNewAlbumDialogD1Ev
libKF5kipiplugins.so.5.9.1:_ZN11KIPIPlugins16KPNewAlbumDialogD2Ev
libKF5kipiplugins.so.5.9.1:_ZN11KIPIPlugins16KPProgressWidget11qt_metacallEN11QMetaObject4CallEiPPv
libKF5kipiplugins.so.5.9.1:_ZN11KIPIPlugins16KPProgressWidget11qt_metacastEPKc
libKF5kipiplugins.so.5.9.1:_ZN11KIPIPlugins16KPProgressWidget16slotValueChangedEi
libKF5kipiplugins.so.5.9.1:_ZN11KIPIPlugins16KPProgressWidget16staticMetaObjectE
libKF5kipiplugins.so.5.9.1:_ZN11KIPIPlugins16KPProgressWidget17progressCompletedEv
libKF5kipiplugins.so.5.9.1:_ZN11KIPIPlugins16KPProgressWidget17progressScheduledERK7QStringbb
libKF5kipiplugins.so.5.9.1:_ZN11KIPIPlugins16KPProgressWidget20slotProgressCanceledERK7QString
libKF5kipiplugins.so.5.9.1:_ZN11KIPIPlugins16KPProgressWidget21progressStatusChangedERK7QString
libKF5kipiplugins.so.5.9.1:_ZN11KIPIPlugins16KPProgressWidget22signalProgressCanceledEv
libKF5kipiplugins.so.5.9.1:_ZN11KIPIPlugins16KPProgressWidget24progressThumbnailChangedERK7QPixmap
libKF5kipiplugins.so.5.9.1:_ZN11KIPIPlugins16KPProgressWidgetC1EP7QWidget
libKF5kipiplugins.so.5.9.1:_ZN11KIPIPlugins16KPProgressWidgetC2EP7QWidget
libKF5kipiplugins.so.5.9.1:_ZN11KIPIPlugins16KPProgressWidgetD0Ev
libKF5kipiplugins.so.5.9.1:_ZN11KIPIPlugins16KPProgressWidgetD1Ev
libKF5kipiplugins.so.5.9.1:_ZN11KIPIPlugins16KPProgressWidgetD2Ev
libKF5kipiplugins.so.5.9.1:_ZN11KIPIPlugins16KPSettingsWidget11qt_metacallEN11QMetaObject4CallEiPPv
libKF5kipiplugins.so.5.9.1:_ZN11KIPIPlugins16KPSettingsWidget11qt_metacastEPKc
libKF5kipiplugins.so.5.9.1:_ZN11KIPIPlugins16KPSettingsWidget16replaceImageListEP7QWidget
libKF5kipiplugins.so.5.9.1:_ZN11KIPIPlugins16KPSettingsWidget16staticMetaObjectE
libKF5kipiplugins.so.5.9.1:_ZN11KIPIPlugins16KPSettingsWidget17slotResizeCheckedEv
libKF5kipiplugins.so.5.9.1:_ZN11KIPIPlugins16KPSettingsWidget22addWidgetToSettingsBoxEP7QWidget
libKF5kipiplugins.so.5.9.1:_ZN11KIPIPlugins16KPSettingsWidgetC1EP7QWidgetPN4KIPI9InterfaceERK7QString
libKF5kipiplugins.so.5.9.1:_ZN11KIPIPlugins16KPSettingsWidgetC2EP7QWidgetPN4KIPI9InterfaceERK7QString
libKF5kipiplugins.so.5.9.1:_ZN11KIPIPlugins16KPSettingsWidgetD0Ev
libKF5kipiplugins.so.5.9.1:_ZN11KIPIPlugins16KPSettingsWidgetD1Ev
libKF5kipiplugins.so.5.9.1:_ZN11KIPIPlugins16KPSettingsWidgetD2Ev
libKF5kipiplugins.so.5.9.1:_ZN11KIPIPlugins16makeTemporaryDirEPKc
libKF5kipiplugins.so.5.9.1:_ZN11KIPIPlugins17KPRandomGenerator12randomStringERKi
libKF5kipiplugins.so.5.9.1:_ZN11KIPIPlugins17KPRandomGeneratorC1Ev
libKF5kipiplugins.so.5.9.1:_ZN11KIPIPlugins17KPRandomGeneratorC2Ev
libKF5kipiplugins.so.5.9.1:_ZN11KIPIPlugins17KPRandomGeneratorD1Ev
libKF5kipiplugins.so.5.9.1:_ZN11KIPIPlugins17KPRandomGeneratorD2Ev
libKF5kipiplugins.so.5.9.1:_ZN11KIPIPlugins18removeTemporaryDirEPKc
libKF5kipiplugins.so.5.9.1:_ZN11KIPIPlugins20KPImageDialogPreview11qt_metacallEN11QMetaObject4CallEiPPv
libKF5kipiplugins.so.5.9.1:_ZN11KIPIPlugins20KPImageDialogPreview11qt_metacastEPKc
libKF5kipiplugins.so.5.9.1:_ZN11KIPIPlugins20KPImageDialogPreview11resizeEventEP12QResizeEvent
libKF5kipiplugins.so.5.9.1:_ZN11KIPIPlugins20KPImageDialogPreview11showPreviewERK4QUrl
libKF5kipiplugins.so.5.9.1:_ZN11KIPIPlugins20KPImageDialogPreview11showPreviewEv
libKF5kipiplugins.so.5.9.1:_ZN11KIPIPlugins20KPImageDialogPreview12clearPreviewEv
libKF5kipiplugins.so.5.9.1:_ZN11KIPIPlugins20KPImageDialogPreview13slotThumbnailERK4QUrlRK7QPixmap
libKF5kipiplugins.so.5.9.1:_ZN11KIPIPlugins20KPImageDialogPreview16staticMetaObjectE
libKF5kipiplugins.so.5.9.1:_ZN11KIPIPlugins20KPImageDialogPreviewC1EP7QWidget
libKF5kipiplugins.so.5.9.1:_ZN11KIPIPlugins20KPImageDialogPreviewC2EP7QWidget
libKF5kipiplugins.so.5.9.1:_ZN11KIPIPlugins20KPImageDialogPreviewD0Ev
libKF5kipiplugins.so.5.9.1:_ZN11KIPIPlugins20KPImageDialogPreviewD1Ev
libKF5kipiplugins.so.5.9.1:_ZN11KIPIPlugins20KPImageDialogPreviewD2Ev
libKF5kipiplugins.so.5.9.1:_ZN11KIPIPlugins20KPImagesListViewItem11setCommentsERK7QString
libKF5kipiplugins.so.5.9.1:_ZN11KIPIPlugins20KPImagesListViewItem16setProcessedIconERK5QIcon
libKF5kipiplugins.so.5.9.1:_ZN11KIPIPlugins20KPImagesListViewItem17updateInformationEv
libKF5kipiplugins.so.5.9.1:_ZN11KIPIPlugins20KPImagesListViewItem20setProgressAnimationERK7QPixmap
libKF5kipiplugins.so.5.9.1:_ZN11KIPIPlugins20KPImagesListViewItem6setUrlERK4QUrl
libKF5kipiplugins.so.5.9.1:_ZN11KIPIPlugins20KPImagesListViewItem7setTagsERK11QStringList
libKF5kipiplugins.so.5.9.1:_ZN11KIPIPlugins20KPImagesListViewItem8setStateENS0_5StateE
libKF5kipiplugins.so.5.9.1:_ZN11KIPIPlugins20KPImagesListViewItem8setThumbERK7QPixmapb
libKF5kipiplugins.so.5.9.1:_ZN11KIPIPlugins20KPImagesListViewItem9setPixmapERK7QPixmap
libKF5kipiplugins.so.5.9.1:_ZN11KIPIPlugins20KPImagesListViewItem9setRatingEi
libKF5kipiplugins.so.5.9.1:_ZN11KIPIPlugins20KPImagesListViewItemC1EPNS_16KPImagesListViewERK4QUrl
libKF5kipiplugins.so.5.9.1:_ZN11KIPIPlugins20KPImagesListViewItemC2EPNS_16KPImagesListViewERK4QUrl
libKF5kipiplugins.so.5.9.1:_ZN11KIPIPlugins20KPImagesListViewItemD0Ev
libKF5kipiplugins.so.5.9.1:_ZN11KIPIPlugins20KPImagesListViewItemD1Ev
libKF5kipiplugins.so.5.9.1:_ZN11KIPIPlugins20KPImagesListViewItemD2Ev
libKF5kipiplugins.so.5.9.1:_ZN11KIPIPlugins20KPSaveSettingsWidget11qt_metacallEN11QMetaObject4CallEiPPv
libKF5kipiplugins.so.5.9.1:_ZN11KIPIPlugins20KPSaveSettingsWidget11qt_metacastEPKc
libKF5kipiplugins.so.5.9.1:_ZN11KIPIPlugins20KPSaveSettingsWidget12readSettingsER12KConfigGroup
libKF5kipiplugins.so.5.9.1:_ZN11KIPIPlugins20KPSaveSettingsWidget13setFileFormatENS0_12OutputFormatE
libKF5kipiplugins.so.5.9.1:_ZN11KIPIPlugins20KPSaveSettingsWidget13writeSettingsER12KConfigGroup
libKF5kipiplugins.so.5.9.1:_ZN11KIPIPlugins20KPSaveSettingsWidget14resetToDefaultEv
libKF5kipiplugins.so.5.9.1:_ZN11KIPIPlugins20KPSaveSettingsWidget15setConflictRuleENS0_12ConflictRuleE
libKF5kipiplugins.so.5.9.1:_ZN11KIPIPlugins20KPSaveSettingsWidget16staticMetaObjectE
libKF5kipiplugins.so.5.9.1:_ZN11KIPIPlugins20KPSaveSettingsWidget18extensionForFormatENS0_12OutputFormatE
libKF5kipiplugins.so.5.9.1:_ZN11KIPIPlugins20KPSaveSettingsWidget19setPromptButtonTextERK7QString
libKF5kipiplugins.so.5.9.1:_ZN11KIPIPlugins20KPSaveSettingsWidget23setCustomSettingsWidgetEP7QWidget
libKF5kipiplugins.so.5.9.1:_ZN11KIPIPlugins20KPSaveSettingsWidget23signalSaveFormatChangedEv
libKF5kipiplugins.so.5.9.1:_ZN11KIPIPlugins20KPSaveSettingsWidget23slotPopulateImageFormatEb
libKF5kipiplugins.so.5.9.1:_ZN11KIPIPlugins20KPSaveSettingsWidget27signalConflictButtonChangedEi
libKF5kipiplugins.so.5.9.1:_ZN11KIPIPlugins20KPSaveSettingsWidgetC1EP7QWidget
libKF5kipiplugins.so.5.9.1:_ZN11KIPIPlugins20KPSaveSettingsWidgetC2EP7QWidget
libKF5kipiplugins.so.5.9.1:_ZN11KIPIPlugins20KPSaveSettingsWidgetD0Ev
libKF5kipiplugins.so.5.9.1:_ZN11KIPIPlugins20KPSaveSettingsWidgetD1Ev
libKF5kipiplugins.so.5.9.1:_ZN11KIPIPlugins20KPSaveSettingsWidgetD2Ev
libKF5kipiplugins.so.5.9.1:_ZN11KIPIPlugins21KPBatchProgressDialog10slotCancelEv
libKF5kipiplugins.so.5.9.1:_ZN11KIPIPlugins21KPBatchProgressDialog11qt_metacallEN11QMetaObject4CallEiPPv
libKF5kipiplugins.so.5.9.1:_ZN11KIPIPlugins21KPBatchProgressDialog11qt_metacastEPKc
libKF5kipiplugins.so.5.9.1:_ZN11KIPIPlugins21KPBatchProgressDialog13cancelClickedEv
libKF5kipiplugins.so.5.9.1:_ZN11KIPIPlugins21KPBatchProgressDialog14setButtonCloseEv
libKF5kipiplugins.so.5.9.1:_ZN11KIPIPlugins21KPBatchProgressDialog16staticMetaObjectE
libKF5kipiplugins.so.5.9.1:_ZN11KIPIPlugins21KPBatchProgressDialogC1EP7QWidgetRK7QString
libKF5kipiplugins.so.5.9.1:_ZN11KIPIPlugins21KPBatchProgressDialogC2EP7QWidgetRK7QString
libKF5kipiplugins.so.5.9.1:_ZN11KIPIPlugins21KPBatchProgressDialogD0Ev
libKF5kipiplugins.so.5.9.1:_ZN11KIPIPlugins21KPBatchProgressDialogD1Ev
libKF5kipiplugins.so.5.9.1:_ZN11KIPIPlugins21KPBatchProgressDialogD2Ev
libKF5kipiplugins.so.5.9.1:_ZN11KIPIPlugins21KPBatchProgressWidget11addedActionERK7QStringi
libKF5kipiplugins.so.5.9.1:_ZN11KIPIPlugins21KPBatchProgressWidget11qt_metacallEN11QMetaObject4CallEiPPv
libKF5kipiplugins.so.5.9.1:_ZN11KIPIPlugins21KPBatchProgressWidget11qt_metacastEPKc
libKF5kipiplugins.so.5.9.1:_ZN11KIPIPlugins21KPBatchProgressWidget11setProgressEi
libKF5kipiplugins.so.5.9.1:_ZN11KIPIPlugins21KPBatchProgressWidget11setProgressEii
libKF5kipiplugins.so.5.9.1:_ZN11KIPIPlugins21KPBatchProgressWidget15slotContextMenuEv
libKF5kipiplugins.so.5.9.1:_ZN11KIPIPlugins21KPBatchProgressWidget16staticMetaObjectE
libKF5kipiplugins.so.5.9.1:_ZN11KIPIPlugins21KPBatchProgressWidget17progressCompletedEv
libKF5kipiplugins.so.5.9.1:_ZN11KIPIPlugins21KPBatchProgressWidget17progressScheduledERK7QStringRK7QPixmap
libKF5kipiplugins.so.5.9.1:_ZN11KIPIPlugins21KPBatchProgressWidget18slotCopy2ClipBoardEv
libKF5kipiplugins.so.5.9.1:_ZN11KIPIPlugins21KPBatchProgressWidget22signalProgressCanceledEv
libKF5kipiplugins.so.5.9.1:_ZN11KIPIPlugins21KPBatchProgressWidget5resetEv
libKF5kipiplugins.so.5.9.1:_ZN11KIPIPlugins21KPBatchProgressWidget8setTotalEi
libKF5kipiplugins.so.5.9.1:_ZN11KIPIPlugins21KPBatchProgressWidgetC1EP7QWidget
libKF5kipiplugins.so.5.9.1:_ZN11KIPIPlugins21KPBatchProgressWidgetC2EP7QWidget
libKF5kipiplugins.so.5.9.1:_ZN11KIPIPlugins21KPBatchProgressWidgetD0Ev
libKF5kipiplugins.so.5.9.1:_ZN11KIPIPlugins21KPBatchProgressWidgetD1Ev
libKF5kipiplugins.so.5.9.1:_ZN11KIPIPlugins21KPBatchProgressWidgetD2Ev
libKF5kipiplugins.so.5.9.1:_ZN11KIPIPlugins30adjustedEnvironmentForAppImageEv
libKF5kipiplugins.so.5.9.1:_ZN11KIPIPlugins5KPJob10signalDoneEv
libKF5kipiplugins.so.5.9.1:_ZN11KIPIPlugins5KPJob11qt_metacallEN11QMetaObject4CallEiPPv
libKF5kipiplugins.so.5.9.1:_ZN11KIPIPlugins5KPJob11qt_metacastEPKc
libKF5kipiplugins.so.5.9.1:_ZN11KIPIPlugins5KPJob13signalStartedEv
libKF5kipiplugins.so.5.9.1:_ZN11KIPIPlugins5KPJob14signalProgressEi
libKF5kipiplugins.so.5.9.1:_ZN11KIPIPlugins5KPJob16staticMetaObjectE
libKF5kipiplugins.so.5.9.1:_ZN11KIPIPlugins5KPJob6cancelEv
libKF5kipiplugins.so.5.9.1:_ZN11KIPIPlugins5KPJobC1Ev
libKF5kipiplugins.so.5.9.1:_ZN11KIPIPlugins5KPJobC2Ev
libKF5kipiplugins.so.5.9.1:_ZN11KIPIPlugins5KPJobD0Ev
libKF5kipiplugins.so.5.9.1:_ZN11KIPIPlugins5KPJobD1Ev
libKF5kipiplugins.so.5.9.1:_ZN11KIPIPlugins5KPJobD2Ev
libKF5kipiplugins.so.5.9.1:_ZN11KIPIPlugins6KPHBox10childEventEP11QChildEvent
libKF5kipiplugins.so.5.9.1:_ZN11KIPIPlugins6KPHBox10setSpacingEi
libKF5kipiplugins.so.5.9.1:_ZN11KIPIPlugins6KPHBox11qt_metacallEN11QMetaObject4CallEiPPv
libKF5kipiplugins.so.5.9.1:_ZN11KIPIPlugins6KPHBox11qt_metacastEPKc
libKF5kipiplugins.so.5.9.1:_ZN11KIPIPlugins6KPHBox16setStretchFactorEP7QWidgeti
libKF5kipiplugins.so.5.9.1:_ZN11KIPIPlugins6KPHBox16staticMetaObjectE
libKF5kipiplugins.so.5.9.1:_ZN11KIPIPlugins6KPHBox18setContentsMarginsERK8QMargins
libKF5kipiplugins.so.5.9.1:_ZN11KIPIPlugins6KPHBox18setContentsMarginsEiiii
libKF5kipiplugins.so.5.9.1:_ZN11KIPIPlugins6KPHBoxC1EP7QWidget
libKF5kipiplugins.so.5.9.1:_ZN11KIPIPlugins6KPHBoxC1EbP7QWidget
libKF5kipiplugins.so.5.9.1:_ZN11KIPIPlugins6KPHBoxC2EP7QWidget
libKF5kipiplugins.so.5.9.1:_ZN11KIPIPlugins6KPHBoxC2EbP7QWidget
libKF5kipiplugins.so.5.9.1:_ZN11KIPIPlugins6KPHBoxD0Ev
libKF5kipiplugins.so.5.9.1:_ZN11KIPIPlugins6KPHBoxD1Ev
libKF5kipiplugins.so.5.9.1:_ZN11KIPIPlugins6KPHBoxD2Ev
libKF5kipiplugins.so.5.9.1:_ZN11KIPIPlugins6KPVBox11qt_metacallEN11QMetaObject4CallEiPPv
libKF5kipiplugins.so.5.9.1:_ZN11KIPIPlugins6KPVBox11qt_metacastEPKc
libKF5kipiplugins.so.5.9.1:_ZN11KIPIPlugins6KPVBox16staticMetaObjectE
libKF5kipiplugins.so.5.9.1:_ZN11KIPIPlugins6KPVBoxC1EP7QWidget
libKF5kipiplugins.so.5.9.1:_ZN11KIPIPlugins6KPVBoxC2EP7QWidget
libKF5kipiplugins.so.5.9.1:_ZN11KIPIPlugins6KPVBoxD0Ev
libKF5kipiplugins.so.5.9.1:_ZN11KIPIPlugins6KPVBoxD1Ev
libKF5kipiplugins.so.5.9.1:_ZN11KIPIPlugins6KPVBoxD2Ev
libKF5kipiplugins.so.5.9.1:_ZN11O1Requestor11qt_metacallEN11QMetaObject4CallEiPPv
libKF5kipiplugins.so.5.9.1:_ZN11O1Requestor11qt_metacastEPKc
libKF5kipiplugins.so.5.9.1:_ZN11O1Requestor16staticMetaObjectE
libKF5kipiplugins.so.5.9.1:_ZN11O1Requestor3getERK15QNetworkRequestRK5QListI18O0RequestParameterE
libKF5kipiplugins.so.5.9.1:_ZN11O1Requestor3putERK15QNetworkRequestRK5QListI18O0RequestParameterERK10QByteArray
libKF5kipiplugins.so.5.9.1:_ZN11O1Requestor4postERK15QNetworkRequestRK5QListI18O0RequestParameterEP14QHttpMultiPart
libKF5kipiplugins.so.5.9.1:_ZN11O1Requestor4postERK15QNetworkRequestRK5QListI18O0RequestParameterERK10QByteArray
libKF5kipiplugins.so.5.9.1:_ZN11O1Requestor5setupERK15QNetworkRequestRK5QListI18O0RequestParameterEN21QNetworkAccessManager9OperationE
libKF5kipiplugins.so.5.9.1:_ZN11O1Requestor8addTimerEP13QNetworkReply
libKF5kipiplugins.so.5.9.1:_ZN11O1RequestorC1EP21QNetworkAccessManagerP2O1P7QObject
libKF5kipiplugins.so.5.9.1:_ZN11O1RequestorC2EP21QNetworkAccessManagerP2O1P7QObject
libKF5kipiplugins.so.5.9.1:_ZN11O2ReplyList15ignoreSslErrorsEv
libKF5kipiplugins.so.5.9.1:_ZN11O2ReplyList18setIgnoreSslErrorsEb
libKF5kipiplugins.so.5.9.1:_ZN11O2ReplyList3addEP13QNetworkReply
libKF5kipiplugins.so.5.9.1:_ZN11O2ReplyList3addEP7O2Reply
libKF5kipiplugins.so.5.9.1:_ZN11O2ReplyList4findEP13QNetworkReply
libKF5kipiplugins.so.5.9.1:_ZN11O2ReplyList6removeEP13QNetworkReply
libKF5kipiplugins.so.5.9.1:_ZN11O2ReplyListD0Ev
libKF5kipiplugins.so.5.9.1:_ZN11O2ReplyListD1Ev
libKF5kipiplugins.so.5.9.1:_ZN11O2ReplyListD2Ev
libKF5kipiplugins.so.5.9.1:_ZN11O2Requestor11qt_metacallEN11QMetaObject4CallEiPPv
libKF5kipiplugins.so.5.9.1:_ZN11O2Requestor11qt_metacastEPKc
libKF5kipiplugins.so.5.9.1:_ZN11O2Requestor14onRequestErrorEN13QNetworkReply12NetworkErrorE
libKF5kipiplugins.so.5.9.1:_ZN11O2Requestor14uploadProgressEixx
libKF5kipiplugins.so.5.9.1:_ZN11O2Requestor16onUploadProgressExx
libKF5kipiplugins.so.5.9.1:_ZN11O2Requestor16staticMetaObjectE
libKF5kipiplugins.so.5.9.1:_ZN11O2Requestor17onRefreshFinishedEN13QNetworkReply12NetworkErrorE
libKF5kipiplugins.so.5.9.1:_ZN11O2Requestor17onRequestFinishedEv
libKF5kipiplugins.so.5.9.1:_ZN11O2Requestor3getERK15QNetworkRequest
libKF5kipiplugins.so.5.9.1:_ZN11O2Requestor3putERK15QNetworkRequestRK10QByteArray
libKF5kipiplugins.so.5.9.1:_ZN11O2Requestor4postERK15QNetworkRequestRK10QByteArray
libKF5kipiplugins.so.5.9.1:_ZN11O2Requestor5retryEv
libKF5kipiplugins.so.5.9.1:_ZN11O2Requestor5setupERK15QNetworkRequestN21QNetworkAccessManager9OperationE
libKF5kipiplugins.so.5.9.1:_ZN11O2Requestor6finishEv
libKF5kipiplugins.so.5.9.1:_ZN11O2Requestor8finishedEiN13QNetworkReply12NetworkErrorE10QByteArray
libKF5kipiplugins.so.5.9.1:_ZN11O2RequestorC1EP21QNetworkAccessManagerP2O2P7QObject
libKF5kipiplugins.so.5.9.1:_ZN11O2RequestorC2EP21QNetworkAccessManagerP2O2P7QObject
libKF5kipiplugins.so.5.9.1:_ZN11O2RequestorD0Ev
libKF5kipiplugins.so.5.9.1:_ZN11O2RequestorD1Ev
libKF5kipiplugins.so.5.9.1:_ZN11O2RequestorD2Ev
libKF5kipiplugins.so.5.9.1:_ZN12O1TimedReply10onFinishedEv
libKF5kipiplugins.so.5.9.1:_ZN12O1TimedReply11qt_metacallEN11QMetaObject4CallEiPPv
libKF5kipiplugins.so.5.9.1:_ZN12O1TimedReply11qt_metacastEPKc
libKF5kipiplugins.so.5.9.1:_ZN12O1TimedReply16staticMetaObjectE
libKF5kipiplugins.so.5.9.1:_ZN12O1TimedReply5errorEN13QNetworkReply12NetworkErrorE
libKF5kipiplugins.so.5.9.1:_ZN12O1TimedReply8finishedEv
libKF5kipiplugins.so.5.9.1:_ZN12O1TimedReply9onTimeoutEv
libKF5kipiplugins.so.5.9.1:_ZN12O1TimedReplyC1EP13QNetworkReplyi
libKF5kipiplugins.so.5.9.1:_ZN12O1TimedReplyC2EP13QNetworkReplyi
libKF5kipiplugins.so.5.9.1:_ZN13O0SimpleCrypt15decryptToStringE10QByteArray
libKF5kipiplugins.so.5.9.1:_ZN13O0SimpleCrypt15decryptToStringERK7QString
libKF5kipiplugins.so.5.9.1:_ZN13O0SimpleCrypt15encryptToStringE10QByteArray
libKF5kipiplugins.so.5.9.1:_ZN13O0SimpleCrypt15encryptToStringERK7QString
libKF5kipiplugins.so.5.9.1:_ZN13O0SimpleCrypt18decryptToByteArrayE10QByteArray
libKF5kipiplugins.so.5.9.1:_ZN13O0SimpleCrypt18decryptToByteArrayERK7QString
libKF5kipiplugins.so.5.9.1:_ZN13O0SimpleCrypt18encryptToByteArrayE10QByteArray
libKF5kipiplugins.so.5.9.1:_ZN13O0SimpleCrypt18encryptToByteArrayERK7QString
libKF5kipiplugins.so.5.9.1:_ZN13O0SimpleCrypt6setKeyEy
libKF5kipiplugins.so.5.9.1:_ZN13O0SimpleCrypt8splitKeyEv
libKF5kipiplugins.so.5.9.1:_ZN13O0SimpleCryptC1Ev
libKF5kipiplugins.so.5.9.1:_ZN13O0SimpleCryptC1Ey
libKF5kipiplugins.so.5.9.1:_ZN13O0SimpleCryptC2Ev
libKF5kipiplugins.so.5.9.1:_ZN13O0SimpleCryptC2Ey
libKF5kipiplugins.so.5.9.1:_ZN13O2ReplyServer10setTimeoutEi
libKF5kipiplugins.so.5.9.1:_ZN13O2ReplyServer11closeServerEP10QTcpSocketb
libKF5kipiplugins.so.5.9.1:_ZN13O2ReplyServer11qt_metacallEN11QMetaObject4CallEiPPv
libKF5kipiplugins.so.5.9.1:_ZN13O2ReplyServer11qt_metacastEPKc
libKF5kipiplugins.so.5.9.1:_ZN13O2ReplyServer12onBytesReadyEv
libKF5kipiplugins.so.5.9.1:_ZN13O2ReplyServer12replyContentEv
libKF5kipiplugins.so.5.9.1:_ZN13O2ReplyServer12serverClosedEb
libKF5kipiplugins.so.5.9.1:_ZN13O2ReplyServer13callbackTriesEv
libKF5kipiplugins.so.5.9.1:_ZN13O2ReplyServer15setReplyContentERK10QByteArray
libKF5kipiplugins.so.5.9.1:_ZN13O2ReplyServer16parseQueryParamsEP10QByteArray
libKF5kipiplugins.so.5.9.1:_ZN13O2ReplyServer16setCallbackTriesEi
libKF5kipiplugins.so.5.9.1:_ZN13O2ReplyServer16staticMetaObjectE
libKF5kipiplugins.so.5.9.1:_ZN13O2ReplyServer20onIncomingConnectionEv
libKF5kipiplugins.so.5.9.1:_ZN13O2ReplyServer20verificationReceivedE4QMapI7QStringS1_E
libKF5kipiplugins.so.5.9.1:_ZN13O2ReplyServer7timeoutEv
libKF5kipiplugins.so.5.9.1:_ZN13O2ReplyServerC1EP7QObject
libKF5kipiplugins.so.5.9.1:_ZN13O2ReplyServerC2EP7QObject
libKF5kipiplugins.so.5.9.1:_ZN14pluginsVersion10gitVersionEv
libKF5kipiplugins.so.5.9.1:_ZN15O0AbstractStore11qt_metacallEN11QMetaObject4CallEiPPv
libKF5kipiplugins.so.5.9.1:_ZN15O0AbstractStore11qt_metacastEPKc
libKF5kipiplugins.so.5.9.1:_ZN15O0AbstractStore16staticMetaObjectE
libKF5kipiplugins.so.5.9.1:_ZN15O0SettingsStore11qt_metacallEN11QMetaObject4CallEiPPv
libKF5kipiplugins.so.5.9.1:_ZN15O0SettingsStore11qt_metacastEPKc
libKF5kipiplugins.so.5.9.1:_ZN15O0SettingsStore11setGroupKeyERK7QString
libKF5kipiplugins.so.5.9.1:_ZN15O0SettingsStore15groupKeyChangedEv
libKF5kipiplugins.so.5.9.1:_ZN15O0SettingsStore16staticMetaObjectE
libKF5kipiplugins.so.5.9.1:_ZN15O0SettingsStore5valueERK7QStringS2_
libKF5kipiplugins.so.5.9.1:_ZN15O0SettingsStore8setValueERK7QStringS2_
libKF5kipiplugins.so.5.9.1:_ZN15O0SettingsStoreC1EP9QSettingsRK7QStringP7QObject
libKF5kipiplugins.so.5.9.1:_ZN15O0SettingsStoreC1ERK7QStringP7QObject
libKF5kipiplugins.so.5.9.1:_ZN15O0SettingsStoreC2EP9QSettingsRK7QStringP7QObject
libKF5kipiplugins.so.5.9.1:_ZN15O0SettingsStoreC2ERK7QStringP7QObject
libKF5kipiplugins.so.5.9.1:_ZN2O111callbackUrlEv
libKF5kipiplugins.so.5.9.1:_ZN2O111qt_metacallEN11QMetaObject4CallEiPPv
libKF5kipiplugins.so.5.9.1:_ZN2O111qt_metacastEPKc
libKF5kipiplugins.so.5.9.1:_ZN2O112authorizeUrlEv
libKF5kipiplugins.so.5.9.1:_ZN2O112setUserAgentERK10QByteArray
libKF5kipiplugins.so.5.9.1:_ZN2O113encodeHeadersERK5QListI18O0RequestParameterE
libKF5kipiplugins.so.5.9.1:_ZN2O113exchangeTokenEv
libKF5kipiplugins.so.5.9.1:_ZN2O113parseResponseERK10QByteArray
libKF5kipiplugins.so.5.9.1:_ZN2O114accessTokenUrlEv
libKF5kipiplugins.so.5.9.1:_ZN2O114getRequestBaseERK5QListI18O0RequestParameterES4_RK4QUrlN21QNetworkAccessManager9OperationE
libKF5kipiplugins.so.5.9.1:_ZN2O114setCallbackUrlERK7QString
libKF5kipiplugins.so.5.9.1:_ZN2O115decorateRequestER15QNetworkRequestRK5QListI18O0RequestParameterE
libKF5kipiplugins.so.5.9.1:_ZN2O115requestTokenUrlEv
libKF5kipiplugins.so.5.9.1:_ZN2O115setAuthorizeUrlERK4QUrl
libKF5kipiplugins.so.5.9.1:_ZN2O115signatureMethodEv
libKF5kipiplugins.so.5.9.1:_ZN2O116staticMetaObjectE
libKF5kipiplugins.so.5.9.1:_ZN2O117generateSignatureE5QListI18O0RequestParameterERK15QNetworkRequestRKS2_N21QNetworkAccessManager9OperationE
libKF5kipiplugins.so.5.9.1:_ZN2O117requestParametersEv
libKF5kipiplugins.so.5.9.1:_ZN2O117setAccessTokenUrlERK4QUrl
libKF5kipiplugins.so.5.9.1:_ZN2O118setRequestTokenUrlERK4QUrl
libKF5kipiplugins.so.5.9.1:_ZN2O118setSignatureMethodERK7QString
libKF5kipiplugins.so.5.9.1:_ZN2O119authorizeUrlChangedEv
libKF5kipiplugins.so.5.9.1:_ZN2O119onTokenRequestErrorEN13QNetworkReply12NetworkErrorE
libKF5kipiplugins.so.5.9.1:_ZN2O120onTokenExchangeErrorEN13QNetworkReply12NetworkErrorE
libKF5kipiplugins.so.5.9.1:_ZN2O120setRequestParametersERK5QListI18O0RequestParameterE
libKF5kipiplugins.so.5.9.1:_ZN2O121accessTokenUrlChangedEv
libKF5kipiplugins.so.5.9.1:_ZN2O122onTokenRequestFinishedEv
libKF5kipiplugins.so.5.9.1:_ZN2O122onVerificationReceivedE4QMapI7QStringS1_E
libKF5kipiplugins.so.5.9.1:_ZN2O122requestTokenUrlChangedEv
libKF5kipiplugins.so.5.9.1:_ZN2O122signatureMethodChangedEv
libKF5kipiplugins.so.5.9.1:_ZN2O123onTokenExchangeFinishedEv
libKF5kipiplugins.so.5.9.1:_ZN2O124buildAuthorizationHeaderERK5QListI18O0RequestParameterE
libKF5kipiplugins.so.5.9.1:_ZN2O14linkEv
libKF5kipiplugins.so.5.9.1:_ZN2O14signERK5QListI18O0RequestParameterES4_RK4QUrlN21QNetworkAccessManager9OperationERK7QStringSC_
libKF5kipiplugins.so.5.9.1:_ZN2O15nonceEv
libKF5kipiplugins.so.5.9.1:_ZN2O16unlinkEv
libKF5kipiplugins.so.5.9.1:_ZN2O1C1EP7QObjectP21QNetworkAccessManagerP15O0AbstractStore
libKF5kipiplugins.so.5.9.1:_ZN2O1C2EP7QObjectP21QNetworkAccessManagerP15O0AbstractStore
libKF5kipiplugins.so.5.9.1:_ZN2O210requestUrlEv
libKF5kipiplugins.so.5.9.1:_ZN2O210setExpiresEi
libKF5kipiplugins.so.5.9.1:_ZN2O211qt_metacallEN11QMetaObject4CallEiPPv
libKF5kipiplugins.so.5.9.1:_ZN2O211qt_metacastEPKc
libKF5kipiplugins.so.5.9.1:_ZN2O211setPasswordERK7QString
libKF5kipiplugins.so.5.9.1:_ZN2O211setTokenUrlERK7QString
libKF5kipiplugins.so.5.9.1:_ZN2O211setUsernameERK7QString
libKF5kipiplugins.so.5.9.1:_ZN2O212refreshTokenEv
libKF5kipiplugins.so.5.9.1:_ZN2O212replyContentEv
libKF5kipiplugins.so.5.9.1:_ZN2O212scopeChangedEv
libKF5kipiplugins.so.5.9.1:_ZN2O212setGrantFlowENS_9GrantFlowE
libKF5kipiplugins.so.5.9.1:_ZN2O213setRequestUrlERK7QString
libKF5kipiplugins.so.5.9.1:_ZN2O214onRefreshErrorEN13QNetworkReply12NetworkErrorE
libKF5kipiplugins.so.5.9.1:_ZN2O215ignoreSslErrorsEv
libKF5kipiplugins.so.5.9.1:_ZN2O215passwordChangedEv
libKF5kipiplugins.so.5.9.1:_ZN2O215refreshFinishedEN13QNetworkReply12NetworkErrorE
libKF5kipiplugins.so.5.9.1:_ZN2O215refreshTokenUrlEv
libKF5kipiplugins.so.5.9.1:_ZN2O215serverHasClosedEb
libKF5kipiplugins.so.5.9.1:_ZN2O215setRefreshTokenERK7QString
libKF5kipiplugins.so.5.9.1:_ZN2O215setReplyContentERK10QByteArray
libKF5kipiplugins.so.5.9.1:_ZN2O215tokenUrlChangedEv
libKF5kipiplugins.so.5.9.1:_ZN2O215usernameChangedEv
libKF5kipiplugins.so.5.9.1:_ZN2O216buildRequestBodyERK4QMapI7QStringS1_E
libKF5kipiplugins.so.5.9.1:_ZN2O216grantFlowChangedEv
libKF5kipiplugins.so.5.9.1:_ZN2O216staticMetaObjectE
libKF5kipiplugins.so.5.9.1:_ZN2O217onRefreshFinishedEv
libKF5kipiplugins.so.5.9.1:_ZN2O217onTokenReplyErrorEN13QNetworkReply12NetworkErrorE
libKF5kipiplugins.so.5.9.1:_ZN2O217requestUrlChangedEv
libKF5kipiplugins.so.5.9.1:_ZN2O218extraRequestParamsEv
libKF5kipiplugins.so.5.9.1:_ZN2O218setIgnoreSslErrorsEb
libKF5kipiplugins.so.5.9.1:_ZN2O218setLocalhostPolicyERK7QString
libKF5kipiplugins.so.5.9.1:_ZN2O218setRefreshTokenUrlERK7QString
libKF5kipiplugins.so.5.9.1:_ZN2O220onTokenReplyFinishedEv
libKF5kipiplugins.so.5.9.1:_ZN2O221setExtraRequestParamsERK4QMapI7QString8QVariantE
libKF5kipiplugins.so.5.9.1:_ZN2O222onVerificationReceivedE4QMapI7QStringS1_E
libKF5kipiplugins.so.5.9.1:_ZN2O222refreshTokenUrlChangedEv
libKF5kipiplugins.so.5.9.1:_ZN2O225extraRequestParamsChangedEv
libKF5kipiplugins.so.5.9.1:_ZN2O24codeEv
libKF5kipiplugins.so.5.9.1:_ZN2O24linkEv
libKF5kipiplugins.so.5.9.1:_ZN2O25scopeEv
libKF5kipiplugins.so.5.9.1:_ZN2O26apiKeyEv
libKF5kipiplugins.so.5.9.1:_ZN2O26unlinkEv
libKF5kipiplugins.so.5.9.1:_ZN2O27expiresEv
libKF5kipiplugins.so.5.9.1:_ZN2O27refreshEv
libKF5kipiplugins.so.5.9.1:_ZN2O27setCodeERK7QString
libKF5kipiplugins.so.5.9.1:_ZN2O28passwordEv
libKF5kipiplugins.so.5.9.1:_ZN2O28setScopeERK7QString
libKF5kipiplugins.so.5.9.1:_ZN2O28tokenUrlEv
libKF5kipiplugins.so.5.9.1:_ZN2O28usernameEv
libKF5kipiplugins.so.5.9.1:_ZN2O29grantFlowEv
libKF5kipiplugins.so.5.9.1:_ZN2O29setApiKeyERK7QString
libKF5kipiplugins.so.5.9.1:_ZN2O2C1EP7QObjectP21QNetworkAccessManagerP15O0AbstractStore
libKF5kipiplugins.so.5.9.1:_ZN2O2C2EP7QObjectP21QNetworkAccessManagerP15O0AbstractStore
libKF5kipiplugins.so.5.9.1:_ZN7O2Reply11qt_metacallEN11QMetaObject4CallEiPPv
libKF5kipiplugins.so.5.9.1:_ZN7O2Reply11qt_metacastEPKc
libKF5kipiplugins.so.5.9.1:_ZN7O2Reply16staticMetaObjectE
libKF5kipiplugins.so.5.9.1:_ZN7O2Reply5errorEN13QNetworkReply12NetworkErrorE
libKF5kipiplugins.so.5.9.1:_ZN7O2Reply9onTimeOutEv
libKF5kipiplugins.so.5.9.1:_ZN7O2ReplyC1EP13QNetworkReplyiP7QObject
libKF5kipiplugins.so.5.9.1:_ZN7O2ReplyC2EP13QNetworkReplyiP7QObject
libKF5kipiplugins.so.5.9.1:_ZNK10O0BaseAuth10metaObjectEv
libKF5kipiplugins.so.5.9.1:_ZNK11KIPIPlugins10CtrlButton10metaObjectEv
libKF5kipiplugins.so.5.9.1:_ZNK11KIPIPlugins11KPAboutData10metaObjectEv
libKF5kipiplugins.so.5.9.1:_ZNK11KIPIPlugins11KPImageInfo10colorLabelEv
libKF5kipiplugins.so.5.9.1:_ZNK11KIPIPlugins11KPImageInfo11descriptionEv
libKF5kipiplugins.so.5.9.1:_ZNK11KIPIPlugins11KPImageInfo11hasAltitudeEv
libKF5kipiplugins.so.5.9.1:_ZNK11KIPIPlugins11KPImageInfo11hasCreatorsEv
libKF5kipiplugins.so.5.9.1:_ZNK11KIPIPlugins11KPImageInfo11hasFileSizeEv
libKF5kipiplugins.so.5.9.1:_ZNK11KIPIPlugins11KPImageInfo11hasKeywordsEv
libKF5kipiplugins.so.5.9.1:_ZNK11KIPIPlugins11KPImageInfo11hasLatitudeEv
libKF5kipiplugins.so.5.9.1:_ZNK11KIPIPlugins11KPImageInfo11hasTagsPathEv
libKF5kipiplugins.so.5.9.1:_ZNK11KIPIPlugins11KPImageInfo11isExactDateEv
libKF5kipiplugins.so.5.9.1:_ZNK11KIPIPlugins11KPImageInfo11orientationEv
libKF5kipiplugins.so.5.9.1:_ZNK11KIPIPlugins11KPImageInfo12hasLongitudeEv
libKF5kipiplugins.so.5.9.1:_ZNK11KIPIPlugins11KPImageInfo12hasPickLabelEv
libKF5kipiplugins.so.5.9.1:_ZNK11KIPIPlugins11KPImageInfo13hasColorLabelEv
libKF5kipiplugins.so.5.9.1:_ZNK11KIPIPlugins11KPImageInfo14hasDescriptionEv
libKF5kipiplugins.so.5.9.1:_ZNK11KIPIPlugins11KPImageInfo14hasOrientationEv
libKF5kipiplugins.so.5.9.1:_ZNK11KIPIPlugins11KPImageInfo18hasGeolocationInfoEv
libKF5kipiplugins.so.5.9.1:_ZNK11KIPIPlugins11KPImageInfo3urlEv
libKF5kipiplugins.so.5.9.1:_ZNK11KIPIPlugins11KPImageInfo4dateEv
libKF5kipiplugins.so.5.9.1:_ZNK11KIPIPlugins11KPImageInfo4nameEv
libKF5kipiplugins.so.5.9.1:_ZNK11KIPIPlugins11KPImageInfo5titleEv
libKF5kipiplugins.so.5.9.1:_ZNK11KIPIPlugins11KPImageInfo6creditEv
libKF5kipiplugins.so.5.9.1:_ZNK11KIPIPlugins11KPImageInfo6ratingEv
libKF5kipiplugins.so.5.9.1:_ZNK11KIPIPlugins11KPImageInfo6rightsEv
libKF5kipiplugins.so.5.9.1:_ZNK11KIPIPlugins11KPImageInfo6sourceEv
libKF5kipiplugins.so.5.9.1:_ZNK11KIPIPlugins11KPImageInfo7hasDateEv
libKF5kipiplugins.so.5.9.1:_ZNK11KIPIPlugins11KPImageInfo7hasNameEv
libKF5kipiplugins.so.5.9.1:_ZNK11KIPIPlugins11KPImageInfo8altitudeEv
libKF5kipiplugins.so.5.9.1:_ZNK11KIPIPlugins11KPImageInfo8creatorsEv
libKF5kipiplugins.so.5.9.1:_ZNK11KIPIPlugins11KPImageInfo8fileSizeEv
libKF5kipiplugins.so.5.9.1:_ZNK11KIPIPlugins11KPImageInfo8hasTitleEv
libKF5kipiplugins.so.5.9.1:_ZNK11KIPIPlugins11KPImageInfo8keywordsEv
libKF5kipiplugins.so.5.9.1:_ZNK11KIPIPlugins11KPImageInfo8latitudeEv
libKF5kipiplugins.so.5.9.1:_ZNK11KIPIPlugins11KPImageInfo8tagsPathEv
libKF5kipiplugins.so.5.9.1:_ZNK11KIPIPlugins11KPImageInfo9hasCreditEv
libKF5kipiplugins.so.5.9.1:_ZNK11KIPIPlugins11KPImageInfo9hasRatingEv
libKF5kipiplugins.so.5.9.1:_ZNK11KIPIPlugins11KPImageInfo9hasRightsEv
libKF5kipiplugins.so.5.9.1:_ZNK11KIPIPlugins11KPImageInfo9hasSourceEv
libKF5kipiplugins.so.5.9.1:_ZNK11KIPIPlugins11KPImageInfo9longitudeEv
libKF5kipiplugins.so.5.9.1:_ZNK11KIPIPlugins11KPImageInfo9pickLabelEv
libKF5kipiplugins.so.5.9.1:_ZNK11KIPIPlugins12KPDialogBase13getHelpButtonEv
libKF5kipiplugins.so.5.9.1:_ZNK11KIPIPlugins12KPDialogBase5ifaceEv
libKF5kipiplugins.so.5.9.1:_ZNK11KIPIPlugins12KPImagesList10metaObjectEv
libKF5kipiplugins.so.5.9.1:_ZNK11KIPIPlugins12KPImagesList13getCurrentUrlEv
libKF5kipiplugins.so.5.9.1:_ZNK11KIPIPlugins12KPImagesList5ifaceEv
libKF5kipiplugins.so.5.9.1:_ZNK11KIPIPlugins12KPImagesList8iconSizeEv
libKF5kipiplugins.so.5.9.1:_ZNK11KIPIPlugins12KPImagesList8listViewEv
libKF5kipiplugins.so.5.9.1:_ZNK11KIPIPlugins12KPImagesList9imageUrlsEb
libKF5kipiplugins.so.5.9.1:_ZNK11KIPIPlugins12KPImagesList9isRawFileERK4QUrl
libKF5kipiplugins.so.5.9.1:_ZNK11KIPIPlugins12KPToolDialog10helpButtonEv
libKF5kipiplugins.so.5.9.1:_ZNK11KIPIPlugins12KPToolDialog10metaObjectEv
libKF5kipiplugins.so.5.9.1:_ZNK11KIPIPlugins12KPToolDialog11startButtonEv
libKF5kipiplugins.so.5.9.1:_ZNK11KIPIPlugins12KPWizardPage10isCompleteEv
libKF5kipiplugins.so.5.9.1:_ZNK11KIPIPlugins12KPWizardPage2idEv
libKF5kipiplugins.so.5.9.1:_ZNK11KIPIPlugins12KPWizardPage9assistantEv
libKF5kipiplugins.so.5.9.1:_ZNK11KIPIPlugins13KPImageDialog11fileFormatsEv
libKF5kipiplugins.so.5.9.1:_ZNK11KIPIPlugins13KPImageDialog12singleSelectEv
libKF5kipiplugins.so.5.9.1:_ZNK11KIPIPlugins13KPImageDialog3urlEv
libKF5kipiplugins.so.5.9.1:_ZNK11KIPIPlugins13KPImageDialog4urlsEv
libKF5kipiplugins.so.5.9.1:_ZNK11KIPIPlugins13KPImageDialog7onlyRawEv
libKF5kipiplugins.so.5.9.1:_ZNK11KIPIPlugins13KPLoginDialog10metaObjectEv
libKF5kipiplugins.so.5.9.1:_ZNK11KIPIPlugins13KPLoginDialog5loginEv
libKF5kipiplugins.so.5.9.1:_ZNK11KIPIPlugins13KPLoginDialog8passwordEv
libKF5kipiplugins.so.5.9.1:_ZNK11KIPIPlugins14KPFileSelector10metaObjectEv
libKF5kipiplugins.so.5.9.1:_ZNK11KIPIPlugins14KPFileSelector8lineEditEv
libKF5kipiplugins.so.5.9.1:_ZNK11KIPIPlugins14KPWizardDialog10helpButtonEv
libKF5kipiplugins.so.5.9.1:_ZNK11KIPIPlugins15KPColorSelector10metaObjectEv
libKF5kipiplugins.so.5.9.1:_ZNK11KIPIPlugins15KPColorSelector5colorEv
libKF5kipiplugins.so.5.9.1:_ZNK11KIPIPlugins15KPThreadManager10metaObjectEv
libKF5kipiplugins.so.5.9.1:_ZNK11KIPIPlugins15KPThreadManager22maximumNumberOfThreadsEv
libKF5kipiplugins.so.5.9.1:_ZNK11KIPIPlugins15KPThreadManager7isEmptyEv
libKF5kipiplugins.so.5.9.1:_ZNK11KIPIPlugins15KPWorkingPixmap10frameCountEv
libKF5kipiplugins.so.5.9.1:_ZNK11KIPIPlugins15KPWorkingPixmap7frameAtEi
libKF5kipiplugins.so.5.9.1:_ZNK11KIPIPlugins15KPWorkingPixmap7isEmptyEv
libKF5kipiplugins.so.5.9.1:_ZNK11KIPIPlugins15KPWorkingPixmap9frameSizeEv
libKF5kipiplugins.so.5.9.1:_ZNK11KIPIPlugins16KPImagesListView10metaObjectEv
libKF5kipiplugins.so.5.9.1:_ZNK11KIPIPlugins16KPImagesListView13indexFromItemEPNS_20KPImagesListViewItemEi
libKF5kipiplugins.so.5.9.1:_ZNK11KIPIPlugins16KPImagesListView14getCurrentItemEv
libKF5kipiplugins.so.5.9.1:_ZNK11KIPIPlugins16KPImagesListView5ifaceEv
libKF5kipiplugins.so.5.9.1:_ZNK11KIPIPlugins16KPImagesListView7drawRowEP8QPainterRK20QStyleOptionViewItemRK11QModelIndex
libKF5kipiplugins.so.5.9.1:_ZNK11KIPIPlugins16KPNewAlbumDialog10getLocEditEv
libKF5kipiplugins.so.5.9.1:_ZNK11KIPIPlugins16KPNewAlbumDialog10metaObjectEv
libKF5kipiplugins.so.5.9.1:_ZNK11KIPIPlugins16KPNewAlbumDialog11getAlbumBoxEv
libKF5kipiplugins.so.5.9.1:_ZNK11KIPIPlugins16KPNewAlbumDialog11getDescEditEv
libKF5kipiplugins.so.5.9.1:_ZNK11KIPIPlugins16KPNewAlbumDialog12getButtonBoxEv
libKF5kipiplugins.so.5.9.1:_ZNK11KIPIPlugins16KPNewAlbumDialog12getTitleEditEv
libKF5kipiplugins.so.5.9.1:_ZNK11KIPIPlugins16KPNewAlbumDialog13getMainWidgetEv
libKF5kipiplugins.so.5.9.1:_ZNK11KIPIPlugins16KPNewAlbumDialog15getDateTimeEditEv
libKF5kipiplugins.so.5.9.1:_ZNK11KIPIPlugins16KPProgressWidget10metaObjectEv
libKF5kipiplugins.so.5.9.1:_ZNK11KIPIPlugins16KPSettingsWidget10getSizeBoxEv
libKF5kipiplugins.so.5.9.1:_ZNK11KIPIPlugins16KPSettingsWidget10imagesListEv
libKF5kipiplugins.so.5.9.1:_ZNK11KIPIPlugins16KPSettingsWidget10metaObjectEv
libKF5kipiplugins.so.5.9.1:_ZNK11KIPIPlugins16KPSettingsWidget11getAlbumBoxEv
libKF5kipiplugins.so.5.9.1:_ZNK11KIPIPlugins16KPSettingsWidget11progressBarEv
libKF5kipiplugins.so.5.9.1:_ZNK11KIPIPlugins16KPSettingsWidget12getAlbumsCoBEv
libKF5kipiplugins.so.5.9.1:_ZNK11KIPIPlugins16KPSettingsWidget12getHeaderLblEv
libKF5kipiplugins.so.5.9.1:_ZNK11KIPIPlugins16KPSettingsWidget12getReloadBtnEv
libKF5kipiplugins.so.5.9.1:_ZNK11KIPIPlugins16KPSettingsWidget12getUploadBoxEv
libKF5kipiplugins.so.5.9.1:_ZNK11KIPIPlugins16KPSettingsWidget13getAccountBoxEv
libKF5kipiplugins.so.5.9.1:_ZNK11KIPIPlugins16KPSettingsWidget13getNewAlbmBtnEv
libKF5kipiplugins.so.5.9.1:_ZNK11KIPIPlugins16KPSettingsWidget13getOptionsBoxEv
libKF5kipiplugins.so.5.9.1:_ZNK11KIPIPlugins16KPSettingsWidget14getSettingsBoxEv
libKF5kipiplugins.so.5.9.1:_ZNK11KIPIPlugins16KPSettingsWidget15getDimensionCoBEv
libKF5kipiplugins.so.5.9.1:_ZNK11KIPIPlugins16KPSettingsWidget15getDimensionSpBEv
libKF5kipiplugins.so.5.9.1:_ZNK11KIPIPlugins16KPSettingsWidget16getChangeUserBtnEv
libKF5kipiplugins.so.5.9.1:_ZNK11KIPIPlugins16KPSettingsWidget16getImgQualitySpBEv
libKF5kipiplugins.so.5.9.1:_ZNK11KIPIPlugins16KPSettingsWidget16getSizeBoxLayoutEv
libKF5kipiplugins.so.5.9.1:_ZNK11KIPIPlugins16KPSettingsWidget16getUserNameLabelEv
libKF5kipiplugins.so.5.9.1:_ZNK11KIPIPlugins16KPSettingsWidget17getAlbumBoxLayoutEv
libKF5kipiplugins.so.5.9.1:_ZNK11KIPIPlugins16KPSettingsWidget17getResizeCheckBoxEv
libKF5kipiplugins.so.5.9.1:_ZNK11KIPIPlugins16KPSettingsWidget18getDestinationPathEv
libKF5kipiplugins.so.5.9.1:_ZNK11KIPIPlugins16KPSettingsWidget18getUploadBoxLayoutEv
libKF5kipiplugins.so.5.9.1:_ZNK11KIPIPlugins16KPSettingsWidget19getAccountBoxLayoutEv
libKF5kipiplugins.so.5.9.1:_ZNK11KIPIPlugins16KPSettingsWidget19getOptionsBoxLayoutEv
libKF5kipiplugins.so.5.9.1:_ZNK11KIPIPlugins16KPSettingsWidget19getOriginalCheckBoxEv
libKF5kipiplugins.so.5.9.1:_ZNK11KIPIPlugins16KPSettingsWidget20getSettingsBoxLayoutEv
libKF5kipiplugins.so.5.9.1:_ZNK11KIPIPlugins20KPImageDialogPreview10metaObjectEv
libKF5kipiplugins.so.5.9.1:_ZNK11KIPIPlugins20KPImageDialogPreview8sizeHintEv
libKF5kipiplugins.so.5.9.1:_ZNK11KIPIPlugins20KPImagesListViewItem17hasValidThumbnailEv
libKF5kipiplugins.so.5.9.1:_ZNK11KIPIPlugins20KPImagesListViewItem3urlEv
libKF5kipiplugins.so.5.9.1:_ZNK11KIPIPlugins20KPImagesListViewItem4tagsEv
libKF5kipiplugins.so.5.9.1:_ZNK11KIPIPlugins20KPImagesListViewItem4viewEv
libKF5kipiplugins.so.5.9.1:_ZNK11KIPIPlugins20KPImagesListViewItem5stateEv
libKF5kipiplugins.so.5.9.1:_ZNK11KIPIPlugins20KPImagesListViewItem6ratingEv
libKF5kipiplugins.so.5.9.1:_ZNK11KIPIPlugins20KPImagesListViewItem8commentsEv
libKF5kipiplugins.so.5.9.1:_ZNK11KIPIPlugins20KPSaveSettingsWidget10fileFormatEv
libKF5kipiplugins.so.5.9.1:_ZNK11KIPIPlugins20KPSaveSettingsWidget10metaObjectEv
libKF5kipiplugins.so.5.9.1:_ZNK11KIPIPlugins20KPSaveSettingsWidget12conflictRuleEv
libKF5kipiplugins.so.5.9.1:_ZNK11KIPIPlugins20KPSaveSettingsWidget8typeMimeEv
libKF5kipiplugins.so.5.9.1:_ZNK11KIPIPlugins20KPSaveSettingsWidget9extensionEv
libKF5kipiplugins.so.5.9.1:_ZNK11KIPIPlugins21KPBatchProgressDialog10metaObjectEv
libKF5kipiplugins.so.5.9.1:_ZNK11KIPIPlugins21KPBatchProgressDialog14progressWidgetEv
libKF5kipiplugins.so.5.9.1:_ZNK11KIPIPlugins21KPBatchProgressWidget10metaObjectEv
libKF5kipiplugins.so.5.9.1:_ZNK11KIPIPlugins21KPBatchProgressWidget5totalEv
libKF5kipiplugins.so.5.9.1:_ZNK11KIPIPlugins21KPBatchProgressWidget8progressEv
libKF5kipiplugins.so.5.9.1:_ZNK11KIPIPlugins5KPJob10metaObjectEv
libKF5kipiplugins.so.5.9.1:_ZNK11KIPIPlugins6KPHBox10metaObjectEv
libKF5kipiplugins.so.5.9.1:_ZNK11KIPIPlugins6KPHBox15minimumSizeHintEv
libKF5kipiplugins.so.5.9.1:_ZNK11KIPIPlugins6KPHBox8sizeHintEv
libKF5kipiplugins.so.5.9.1:_ZNK11KIPIPlugins6KPVBox10metaObjectEv
libKF5kipiplugins.so.5.9.1:_ZNK11O1Requestor10metaObjectEv
libKF5kipiplugins.so.5.9.1:_ZNK11O2Requestor10metaObjectEv
libKF5kipiplugins.so.5.9.1:_ZNK12O1TimedReply10metaObjectEv
libKF5kipiplugins.so.5.9.1:_ZNK13O2ReplyServer10metaObjectEv
libKF5kipiplugins.so.5.9.1:_ZNK15O0AbstractStore10metaObjectEv
libKF5kipiplugins.so.5.9.1:_ZNK15O0SettingsStore10metaObjectEv
libKF5kipiplugins.so.5.9.1:_ZNK15O0SettingsStore8groupKeyEv
libKF5kipiplugins.so.5.9.1:_ZNK2O110metaObjectEv
libKF5kipiplugins.so.5.9.1:_ZNK2O19userAgentEv
libKF5kipiplugins.so.5.9.1:_ZNK2O210metaObjectEv
libKF5kipiplugins.so.5.9.1:_ZNK2O215localhostPolicyEv
libKF5kipiplugins.so.5.9.1:_ZNK7O2Reply10metaObjectEv
libKF5kipiplugins.so.5.9.1:_ZThn16_N11KIPIPlugins10CtrlButtonD0Ev
libKF5kipiplugins.so.5.9.1:_ZThn16_N11KIPIPlugins10CtrlButtonD1Ev
libKF5kipiplugins.so.5.9.1:_ZThn16_N11KIPIPlugins12KPImagesListD0Ev
libKF5kipiplugins.so.5.9.1:_ZThn16_N11KIPIPlugins12KPImagesListD1Ev
libKF5kipiplugins.so.5.9.1:_ZThn16_N11KIPIPlugins12KPToolDialogD0Ev
libKF5kipiplugins.so.5.9.1:_ZThn16_N11KIPIPlugins12KPToolDialogD1Ev
libKF5kipiplugins.so.5.9.1:_ZThn16_N11KIPIPlugins12KPWizardPageD0Ev
libKF5kipiplugins.so.5.9.1:_ZThn16_N11KIPIPlugins12KPWizardPageD1Ev
libKF5kipiplugins.so.5.9.1:_ZThn16_N11KIPIPlugins13KPLoginDialogD0Ev
libKF5kipiplugins.so.5.9.1:_ZThn16_N11KIPIPlugins13KPLoginDialogD1Ev
libKF5kipiplugins.so.5.9.1:_ZThn16_N11KIPIPlugins14KPFileSelectorD0Ev
libKF5kipiplugins.so.5.9.1:_ZThn16_N11KIPIPlugins14KPFileSelectorD1Ev
libKF5kipiplugins.so.5.9.1:_ZThn16_N11KIPIPlugins14KPWizardDialogD0Ev
libKF5kipiplugins.so.5.9.1:_ZThn16_N11KIPIPlugins14KPWizardDialogD1Ev
libKF5kipiplugins.so.5.9.1:_ZThn16_N11KIPIPlugins15KPColorSelectorD0Ev
libKF5kipiplugins.so.5.9.1:_ZThn16_N11KIPIPlugins15KPColorSelectorD1Ev
libKF5kipiplugins.so.5.9.1:_ZThn16_N11KIPIPlugins16KPImagesListViewD0Ev
libKF5kipiplugins.so.5.9.1:_ZThn16_N11KIPIPlugins16KPImagesListViewD1Ev
libKF5kipiplugins.so.5.9.1:_ZThn16_N11KIPIPlugins16KPNewAlbumDialogD0Ev
libKF5kipiplugins.so.5.9.1:_ZThn16_N11KIPIPlugins16KPNewAlbumDialogD1Ev
libKF5kipiplugins.so.5.9.1:_ZThn16_N11KIPIPlugins16KPProgressWidgetD0Ev
libKF5kipiplugins.so.5.9.1:_ZThn16_N11KIPIPlugins16KPProgressWidgetD1Ev
libKF5kipiplugins.so.5.9.1:_ZThn16_N11KIPIPlugins16KPSettingsWidgetD0Ev
libKF5kipiplugins.so.5.9.1:_ZThn16_N11KIPIPlugins16KPSettingsWidgetD1Ev
libKF5kipiplugins.so.5.9.1:_ZThn16_N11KIPIPlugins20KPImageDialogPreviewD0Ev
libKF5kipiplugins.so.5.9.1:_ZThn16_N11KIPIPlugins20KPImageDialogPreviewD1Ev
libKF5kipiplugins.so.5.9.1:_ZThn16_N11KIPIPlugins20KPSaveSettingsWidgetD0Ev
libKF5kipiplugins.so.5.9.1:_ZThn16_N11KIPIPlugins20KPSaveSettingsWidgetD1Ev
libKF5kipiplugins.so.5.9.1:_ZThn16_N11KIPIPlugins21KPBatchProgressDialogD0Ev
libKF5kipiplugins.so.5.9.1:_ZThn16_N11KIPIPlugins21KPBatchProgressDialogD1Ev
libKF5kipiplugins.so.5.9.1:_ZThn16_N11KIPIPlugins21KPBatchProgressWidgetD0Ev
libKF5kipiplugins.so.5.9.1:_ZThn16_N11KIPIPlugins21KPBatchProgressWidgetD1Ev
libKF5kipiplugins.so.5.9.1:_ZThn16_N11KIPIPlugins5KPJobD0Ev
libKF5kipiplugins.so.5.9.1:_ZThn16_N11KIPIPlugins5KPJobD1Ev
libKF5kipiplugins.so.5.9.1:_ZThn16_N11KIPIPlugins6KPHBoxD0Ev
libKF5kipiplugins.so.5.9.1:_ZThn16_N11KIPIPlugins6KPHBoxD1Ev
libKF5kipiplugins.so.5.9.1:_ZThn16_N11KIPIPlugins6KPVBoxD0Ev
libKF5kipiplugins.so.5.9.1:_ZThn16_N11KIPIPlugins6KPVBoxD1Ev
libKF5kipiplugins.so.5.9.1:_ZThn48_N11KIPIPlugins12KPToolDialogD0Ev
libKF5kipiplugins.so.5.9.1:_ZThn48_N11KIPIPlugins12KPToolDialogD1Ev
libKF5kipiplugins.so.5.9.1:_ZThn48_N11KIPIPlugins14KPWizardDialogD0Ev
libKF5kipiplugins.so.5.9.1:_ZThn48_N11KIPIPlugins14KPWizardDialogD1Ev
